Certificate:
    Data:
        Version: 3 (0x2)
        Serial Number: 1 (0x1)
        Signature Algorithm: sha256WithRSAEncryption
        Issuer: C=HR, ST=Croatia, L=Zagreb, O=FER, OU=FER, CN=default_cn/emailAddress=hrvoje.rom@fer.hr
        Validity
            Not Before: Nov 19 14:07:01 2023 GMT
            Not After : Aug 15 14:07:01 2026 GMT
        Subject: C=Unknown, ST=Unknown, L=Unknown, O=Unknown, OU=Unknown, CN=kafka-1
        Subject Public Key Info:
            Public Key Algorithm: rsaEncryption
                Public-Key: (3072 bit)
                Modulus:
                    00:9f:b7:88:8c:3b:35:98:4e:3f:40:e7:e6:40:16:
                    1e:15:da:8e:44:4d:1d:4b:d1:d6:47:50:24:4d:49:
                    47:b9:7d:96:e2:21:c1:e3:68:f3:db:1b:5a:cc:c0:
                    3c:5a:9f:38:5b:1a:9d:99:36:f7:cb:11:5a:c9:a4:
                    a2:76:8c:9e:ed:8e:09:3d:97:25:c0:5c:b5:88:cd:
                    51:a2:5a:c6:c3:8b:0b:68:d8:fa:d3:46:83:20:33:
                    de:a5:5d:0e:49:c2:d9:33:34:f1:26:1f:85:d1:61:
                    87:08:54:45:03:03:a8:9f:00:16:34:2f:66:94:27:
                    58:7f:c3:bc:79:4a:56:58:e3:cf:bc:0c:8b:48:8f:
                    8a:14:f3:c6:46:42:be:00:f3:d5:6d:a5:17:0f:3a:
                    47:e7:0d:60:a5:a6:45:fd:ce:e9:e3:88:13:c5:90:
                    79:ad:39:6a:11:9e:ca:8e:67:57:8c:72:e0:0e:ce:
                    bf:ea:3c:a6:66:aa:e2:03:87:56:ef:a9:0d:0c:7e:
                    cc:69:1f:76:de:66:d5:11:6a:d1:16:78:63:2c:79:
                    84:bc:0b:1d:ff:e4:51:f6:d5:7f:af:bf:f4:66:e7:
                    3b:ac:02:62:6c:cd:f6:e5:a8:fc:54:a6:b7:34:96:
                    44:90:2e:b9:e7:2d:15:4a:70:1f:73:d4:d4:96:9d:
                    5b:b1:21:cc:e6:3d:56:69:b7:61:be:63:0a:c2:32:
                    62:d3:7f:48:3b:e9:43:43:52:8a:68:ca:87:0f:49:
                    24:08:72:1f:d1:bf:1f:39:01:bc:b4:35:3f:32:e5:
                    56:4a:59:03:a2:63:22:f4:5f:2e:a8:16:20:b1:e5:
                    14:18:23:e5:c0:3a:5c:58:83:4d:e7:c4:45:f1:4e:
                    6d:5b:d2:23:85:c9:fd:76:21:32:4a:f3:a9:25:e4:
                    5e:b4:0c:21:6e:0a:dd:eb:9a:ff:7d:9e:7d:8b:cd:
                    bc:7c:79:07:b1:41:c4:ea:39:a8:51:9c:33:7a:7f:
                    4b:50:2f:79:0a:c8:12:67:6a:bd
                Exponent: 65537 (0x10001)
        X509v3 extensions:
            X509v3 Subject Key Identifier: 
                BF:EC:86:69:92:4F:09:15:3F:FE:BD:8C:A8:49:64:94:C6:DD:EC:6E
            X509v3 Authority Key Identifier: 
                B6:FB:F2:89:13:4F:F9:04:AB:96:34:E0:0A:AA:19:52:B9:7A:B2:D8
            X509v3 Basic Constraints: 
                CA:FALSE
            X509v3 Key Usage: 
                Digital Signature, Key Encipherment
            X509v3 Subject Alternative Name: 
                DNS:kafka-1
    Signature Algorithm: sha256WithRSAEncryption
    Signature Value:
        0c:6c:b9:6f:c8:fc:9e:d7:f3:3d:69:d7:42:56:de:63:c8:70:
        39:2d:9c:c1:ca:b1:85:f7:69:b2:5d:53:27:0b:a9:cc:e4:8e:
        63:2e:30:8f:ae:07:e9:e1:01:0b:83:6c:ef:fb:ac:e6:eb:13:
        a3:2a:f9:ff:d3:c0:09:94:59:5b:04:b4:48:34:2a:a2:f7:02:
        6e:87:e8:c9:96:eb:3c:6d:83:63:5c:69:70:29:f9:56:1a:5b:
        ce:1e:6d:6a:2c:fc:95:f7:c2:3f:5e:e8:3e:51:95:11:2d:50:
        22:6d:c4:f4:b7:49:af:75:cf:2a:8a:e6:56:19:63:25:61:f8:
        1c:6e:8b:9c:4f:40:9a:c4:5d:f5:13:ca:0d:de:f3:53:d2:26:
        d6:2d:33:ef:5c:df:15:84:a2:17:2d:5a:26:42:57:fe:96:12:
        46:6e:e9:30:d9:23:9a:c2:9b:77:9f:61:41:3b:20:7b:96:3a:
        a2:ec:50:39:da:b4:7b:77:d0:1a:33:b8:4c:46:e7:7e:83:e5:
        14:16:31:25:a9:55:82:f4:38:8e:35:50:52:93:17:2f:4b:1b:
        71:16:ae:0a:33:12:1c:1f:a9:78:6d:cb:d7:cc:c4:20:73:bb:
        ac:79:43:16:f8:77:7e:b8:ee:50:55:83:8b:e8:42:c1:2f:ca:
        28:77:9a:79:93:89:07:da:8d:e7:ae:59:d4:01:61:a5:51:c0:
        1c:bf:2b:3d:cf:0b:b6:88:66:65:45:16:b4:af:b7:bb:65:32:
        c2:c9:af:78:a9:e3:b4:85:64:83:0c:cc:e7:26:e0:15:bd:77:
        f5:15:e3:e6:04:ec:48:26:ea:12:9c:1f:7d:e6:46:c7:b1:8a:
        82:f9:4b:f2:3f:9d:e3:8b:56:3e:da:43:98:32:72:98:ad:7c:
        c7:ef:e0:e2:e1:b9:16:9e:6e:8a:87:d9:32:9a:e3:d3:78:ba:
        50:1f:48:b3:0b:00:8e:67:f2:27:ba:b3:d3:8c:02:07:be:58:
        e2:07:bd:03:37:1a:05:bf:c7:bd:2b:89:13:6c:a5:87:91:8a:
        e8:f8:07:4d:60:90:0c:08:bb:90:d9:48:bf:45:ae:33:41:5a:
        36:54:0b:62:bb:bf:14:73:5c:37:68:4e:73:4b:ce:96:78:8f:
        5f:a3:80:7e:c5:70:03:bd:ef:2c:63:41:55:35:a4:d3:04:22:
        7f:8e:3c:32:bc:f0:29:c0:58:64:c1:b5:13:ec:ee:a6:c3:cd:
        d6:58:89:e9:46:d2:6e:a7:8c:51:a7:68:d6:7b:69:50:52:f8:
        81:5b:54:24:17:ec:ab:39:49:2f:44:c4:f0:ef:67:ae:36:2b:
        52:35:ea:cd:ce:ea:8d:7a
-----BEGIN CERTIFICATE-----
MIIFWTCCA0GgAwIBAgIBATANBgkqhkiG9w0BAQsFADCBgzELMAkGA1UEBhMCSFIx
EDAOBgNVBAgMB0Nyb2F0aWExDzANBgNVBAcMBlphZ3JlYjEMMAoGA1UECgwDRkVS
MQwwCgYDVQQLDANGRVIxEzARBgNVBAMMCmRlZmF1bHRfY24xIDAeBgkqhkiG9w0B
CQEWEWhydm9qZS5yb21AZmVyLmhyMB4XDTIzMTExOTE0MDcwMVoXDTI2MDgxNTE0
MDcwMVowbDEQMA4GA1UEBhMHVW5rbm93bjEQMA4GA1UECBMHVW5rbm93bjEQMA4G
A1UEBxMHVW5rbm93bjEQMA4GA1UEChMHVW5rbm93bjEQMA4GA1UECxMHVW5rbm93
bjEQMA4GA1UEAxMHa2Fma2EtMTCCAaIwDQYJKoZIhvcNAQEBBQADggGPADCCAYoC
ggGBAJ+3iIw7NZhOP0Dn5kAWHhXajkRNHUvR1kdQJE1JR7l9luIhweNo89sbWszA
PFqfOFsanZk298sRWsmkonaMnu2OCT2XJcBctYjNUaJaxsOLC2jY+tNGgyAz3qVd
DknC2TM08SYfhdFhhwhURQMDqJ8AFjQvZpQnWH/DvHlKVljjz7wMi0iPihTzxkZC
vgDz1W2lFw86R+cNYKWmRf3O6eOIE8WQea05ahGeyo5nV4xy4A7Ov+o8pmaq4gOH
Vu+pDQx+zGkfdt5m1RFq0RZ4Yyx5hLwLHf/kUfbVf6+/9GbnO6wCYmzN9uWo/FSm
tzSWRJAuuectFUpwH3PU1JadW7EhzOY9Vmm3Yb5jCsIyYtN/SDvpQ0NSimjKhw9J
JAhyH9G/HzkBvLQ1PzLlVkpZA6JjIvRfLqgWILHlFBgj5cA6XFiDTefERfFObVvS
I4XJ/XYhMkrzqSXkXrQMIW4K3eua/32efYvNvHx5B7FBxOo5qFGcM3p/S1AveQrI
EmdqvQIDAQABo24wbDAdBgNVHQ4EFgQUv+yGaZJPCRU//r2MqElklMbd7G4wHwYD
VR0jBBgwFoAUtvvyiRNP+QSrljTgCqoZUrl6stgwCQYDVR0TBAIwADALBgNVHQ8E
BAMCBaAwEgYDVR0RBAswCYIHa2Fma2EtMTANBgkqhkiG9w0BAQsFAAOCAgEADGy5
b8j8ntfzPWnXQlbeY8hwOS2cwcqxhfdpsl1TJwupzOSOYy4wj64H6eEBC4Ns7/us
5usToyr5/9PACZRZWwS0SDQqovcCbofoyZbrPG2DY1xpcCn5Vhpbzh5taiz8lffC
P17oPlGVES1QIm3E9LdJr3XPKormVhljJWH4HG6LnE9AmsRd9RPKDd7zU9Im1i0z
71zfFYSiFy1aJkJX/pYSRm7pMNkjmsKbd59hQTsge5Y6ouxQOdq0e3fQGjO4TEbn
foPlFBYxJalVgvQ4jjVQUpMXL0sbcRauCjMSHB+peG3L18zEIHO7rHlDFvh3frju
UFWDi+hCwS/KKHeaeZOJB9qN565Z1AFhpVHAHL8rPc8LtohmZUUWtK+3u2Uywsmv
eKnjtIVkgwzM5ybgFb139RXj5gTsSCbqEpwffeZGx7GKgvlL8j+d44tWPtpDmDJy
mK18x+/g4uG5Fp5uiofZMprj03i6UB9IswsAjmfyJ7qz04wCB75Y4ge9AzcaBb/H
vSuJE2ylh5GK6PgHTWCQDAi7kNlIv0WuM0FaNlQLYru/FHNcN2hOc0vOlniPX6OA
fsVwA73vLGNBVTWk0wQif448MrzwKcBYZMG1E+zupsPN1liJ6UbSbqeMUado1ntp
UFL4gVtUJBfsqzlJL0TE8O9nrjYrUjXqzc7qjXo=
-----END CERTIFICATE-----
