Certificate:
    Data:
        Version: 3 (0x2)
        Serial Number: 3 (0x3)
        Signature Algorithm: sha256WithRSAEncryption
        Issuer: C=HR, ST=Croatia, L=Zagreb, O=FER, OU=FER, CN=ca.oauthkafka.xyz/emailAddress=hrvoje.rom@fer.hr
        Validity
            Not Before: Jan  6 21:26:25 2024 GMT
            Not After : Oct  2 21:26:25 2026 GMT
        Subject: C=Unknown, ST=Unknown, L=Unknown, O=Unknown, OU=Unknown, CN=kafka-3.oauthkafka.xyz
        Subject Public Key Info:
            Public Key Algorithm: rsaEncryption
                Public-Key: (2048 bit)
                Modulus:
                    00:9a:8d:d1:9e:d2:65:67:09:fd:1a:62:5c:2b:af:
                    65:0f:3e:5c:a3:fc:a3:b9:d8:ef:b2:d1:3d:57:9a:
                    82:98:cc:2c:cd:96:cf:32:f8:d2:95:05:3b:46:c9:
                    b6:56:c1:5b:e1:6a:ab:eb:ba:b0:69:07:a9:63:2a:
                    d1:e2:20:67:c0:62:cc:15:39:b5:1f:f9:67:a9:e1:
                    68:28:15:36:e7:e7:16:2a:6b:d8:70:6d:36:28:03:
                    2a:12:82:e3:7b:81:fa:b6:c1:ae:2d:67:24:91:44:
                    be:a0:fc:fb:a9:3f:51:ac:93:f2:6b:05:18:05:a3:
                    53:4b:4a:24:70:81:cf:ef:e5:5a:92:1b:33:cb:34:
                    39:f2:71:1e:cb:2e:f5:2a:26:e6:dd:29:a7:59:ed:
                    21:5b:f4:28:41:1c:8b:a8:9e:32:23:bf:3e:0b:97:
                    48:ae:99:68:58:d9:6d:af:fe:d5:ef:89:46:5f:2b:
                    b4:f5:13:92:22:e7:73:97:b2:09:4d:93:4f:fb:0b:
                    87:a8:cb:e2:7c:f4:41:53:94:54:fc:46:1a:87:4e:
                    52:47:b1:70:69:e1:53:83:2c:ae:d9:a0:b2:be:0d:
                    a9:b0:20:5c:08:33:ee:11:b5:ad:7e:a6:8f:74:21:
                    a6:ce:3f:7a:b1:70:50:9b:b2:50:89:da:b9:03:ec:
                    3d:b9
                Exponent: 65537 (0x10001)
        X509v3 extensions:
            X509v3 Subject Key Identifier: 
                92:20:57:6D:B2:40:1A:B6:8D:79:34:93:6A:ED:F8:5C:AC:45:B3:36
            X509v3 Authority Key Identifier: 
                A9:8B:83:17:18:99:88:D6:E4:16:63:33:FE:0F:E2:87:1B:35:C6:7C
            X509v3 Basic Constraints: 
                CA:FALSE
            X509v3 Key Usage: 
                Digital Signature, Key Encipherment
            X509v3 Subject Alternative Name: 
                DNS:kafka-3.oauthkafka.xyz
    Signature Algorithm: sha256WithRSAEncryption
    Signature Value:
        8f:66:34:0d:05:03:51:2a:ed:3c:fd:6a:ce:2a:15:9f:a6:14:
        7b:ef:1c:e3:89:7b:67:09:15:53:f7:b2:99:65:ae:d8:5d:2d:
        5e:11:06:36:4a:b2:92:ac:b5:7d:2a:1d:91:77:d9:9d:3d:40:
        0c:6e:d5:77:ad:c8:97:e1:ab:4f:64:88:a9:fd:0b:b3:a3:22:
        b8:64:8a:4e:35:02:f6:2a:78:4c:e5:50:9f:94:00:60:fe:1a:
        07:8b:f5:95:4b:07:22:99:28:ab:ea:43:e8:a5:23:78:e9:1b:
        a5:d8:05:db:02:28:a4:fd:8d:04:df:c2:8e:20:7a:7f:b7:6c:
        f2:fb:7e:2c:24:77:db:19:94:22:94:a5:75:85:fd:f6:48:28:
        36:d0:f3:68:ff:bc:13:77:88:00:a6:ed:ec:a8:f8:56:82:12:
        ed:40:76:52:8c:03:3c:3b:c3:a2:f7:f0:ee:2a:da:33:38:e3:
        59:df:c8:3f:0c:03:92:f7:80:44:bf:ff:6c:f2:90:9e:95:48:
        ea:c0:c5:9f:86:a5:b6:7b:fc:73:53:c4:e1:6f:41:15:c0:d2:
        0c:56:3e:ca:dd:af:9b:93:b7:12:5d:cd:e4:7a:40:47:23:8b:
        41:de:05:32:cf:bb:3d:5c:44:00:bc:3a:c5:db:60:32:80:95:
        09:6a:90:3e:0a:6c:21:67:91:3a:03:5b:fe:1e:58:e9:51:e4:
        54:14:ac:d3:98:ca:3f:c7:ea:5b:94:a3:bd:46:88:05:07:6f:
        c6:5f:f6:54:c5:ec:64:3a:35:01:77:d8:2a:ac:87:2b:6a:42:
        3e:1a:96:ca:3e:db:0c:c8:76:31:8f:83:05:d6:84:6b:61:70:
        0c:88:20:07:f3:ee:b4:9e:d3:04:ec:5a:55:a8:ba:11:03:ca:
        96:25:20:45:8a:99:bb:b2:07:35:c3:07:b6:92:94:9a:5f:5b:
        88:90:d0:32:29:3a:d4:65:f4:20:53:7b:e3:15:15:34:60:6a:
        3f:27:c1:b6:a1:81:a9:9c:8b:1c:74:79:76:a9:5e:64:af:67:
        9d:a4:98:99:c9:e7:f4:f1:aa:eb:28:0e:9a:f9:5d:21:3c:c3:
        13:00:27:14:f4:6f:82:2c:61:d7:7a:45:e9:d4:8f:18:f9:36:
        92:f3:6e:3d:53:66:14:29:f6:9c:0f:fa:dd:d0:f1:e2:16:47:
        de:55:65:f8:05:09:37:df:2f:ea:8f:f8:13:e1:62:e4:27:67:
        0f:ce:05:a2:b3:c6:40:06:66:e1:8f:3e:b6:28:08:8a:4e:31:
        aa:fb:c9:55:30:02:31:c8:a0:72:d7:24:e3:6c:a2:25:d0:a8:
        8e:ba:34:e8:dd:bb:0c:f7
-----BEGIN CERTIFICATE-----
MIIE/jCCAuagAwIBAgIBAzANBgkqhkiG9w0BAQsFADCBijELMAkGA1UEBhMCSFIx
EDAOBgNVBAgMB0Nyb2F0aWExDzANBgNVBAcMBlphZ3JlYjEMMAoGA1UECgwDRkVS
MQwwCgYDVQQLDANGRVIxGjAYBgNVBAMMEWNhLm9hdXRoa2Fma2EueHl6MSAwHgYJ
KoZIhvcNAQkBFhFocnZvamUucm9tQGZlci5ocjAeFw0yNDAxMDYyMTI2MjVaFw0y
NjEwMDIyMTI2MjVaMHsxEDAOBgNVBAYTB1Vua25vd24xEDAOBgNVBAgTB1Vua25v
d24xEDAOBgNVBAcTB1Vua25vd24xEDAOBgNVBAoTB1Vua25vd24xEDAOBgNVBAsT
B1Vua25vd24xHzAdBgNVBAMTFmthZmthLTMub2F1dGhrYWZrYS54eXowggEiMA0G
CSqGSIb3DQEBAQUAA4IBDwAwggEKAoIBAQCajdGe0mVnCf0aYlwrr2UPPlyj/KO5
2O+y0T1XmoKYzCzNls8y+NKVBTtGybZWwVvhaqvrurBpB6ljKtHiIGfAYswVObUf
+Wep4WgoFTbn5xYqa9hwbTYoAyoSguN7gfq2wa4tZySRRL6g/PupP1Gsk/JrBRgF
o1NLSiRwgc/v5VqSGzPLNDnycR7LLvUqJubdKadZ7SFb9ChBHIuonjIjvz4Ll0iu
mWhY2W2v/tXviUZfK7T1E5Ii53OXsglNk0/7C4eoy+J89EFTlFT8RhqHTlJHsXBp
4VODLK7ZoLK+DamwIFwIM+4Rta1+po90IabOP3qxcFCbslCJ2rkD7D25AgMBAAGj
fTB7MB0GA1UdDgQWBBSSIFdtskAato15NJNq7fhcrEWzNjAfBgNVHSMEGDAWgBSp
i4MXGJmI1uQWYzP+D+KHGzXGfDAJBgNVHRMEAjAAMAsGA1UdDwQEAwIFoDAhBgNV
HREEGjAYghZrYWZrYS0zLm9hdXRoa2Fma2EueHl6MA0GCSqGSIb3DQEBCwUAA4IC
AQCPZjQNBQNRKu08/WrOKhWfphR77xzjiXtnCRVT97KZZa7YXS1eEQY2SrKSrLV9
Kh2Rd9mdPUAMbtV3rciX4atPZIip/QuzoyK4ZIpONQL2KnhM5VCflABg/hoHi/WV
SwcimSir6kPopSN46Rul2AXbAiik/Y0E38KOIHp/t2zy+34sJHfbGZQilKV1hf32
SCg20PNo/7wTd4gApu3sqPhWghLtQHZSjAM8O8Oi9/DuKtozOONZ38g/DAOS94BE
v/9s8pCelUjqwMWfhqW2e/xzU8Thb0EVwNIMVj7K3a+bk7cSXc3kekBHI4tB3gUy
z7s9XEQAvDrF22AygJUJapA+CmwhZ5E6A1v+HljpUeRUFKzTmMo/x+pblKO9RogF
B2/GX/ZUxexkOjUBd9gqrIcrakI+GpbKPtsMyHYxj4MF1oRrYXAMiCAH8+60ntME
7FpVqLoRA8qWJSBFipm7sgc1wwe2kpSaX1uIkNAyKTrUZfQgU3vjFRU0YGo/J8G2
oYGpnIscdHl2qV5kr2edpJiZyef08arrKA6a+V0hPMMTACcU9G+CLGHXekXp1I8Y
+TaS8249U2YUKfacD/rd0PHiFkfeVWX4BQk33y/qj/gT4WLkJ2cPzgWis8ZABmbh
jz62KAiKTjGq+8lVMAIxyKBy1yTjbKIl0KiOujTo3bsM9w==
-----END CERTIFICATE-----
