Certificate:
    Data:
        Version: 3 (0x2)
        Serial Number: 3 (0x3)
        Signature Algorithm: sha256WithRSAEncryption
        Issuer: C=HR, ST=Croatia, L=Zagreb, O=FER, OU=FER, CN=default_cn/emailAddress=hrvoje.rom@fer.hr
        Validity
            Not Before: Nov 19 14:07:16 2023 GMT
            Not After : Aug 15 14:07:16 2026 GMT
        Subject: C=Unknown, ST=Unknown, L=Unknown, O=Unknown, OU=Unknown, CN=kafka-3
        Subject Public Key Info:
            Public Key Algorithm: rsaEncryption
                Public-Key: (3072 bit)
                Modulus:
                    00:bd:54:92:95:04:4f:be:24:e3:d0:a3:66:7d:a0:
                    7c:a0:64:80:09:c6:ad:af:8c:1e:69:ce:a5:0e:2c:
                    d0:7c:13:47:c6:35:89:b5:66:d7:67:92:08:b1:d5:
                    d0:98:8a:88:0e:f1:60:0a:b4:23:95:88:3d:7b:aa:
                    07:7e:23:8a:45:77:f8:b2:4c:73:0a:ef:8e:a2:8b:
                    e9:f5:99:53:56:d5:91:eb:71:22:3d:62:9d:ba:70:
                    f4:ad:f6:db:9e:27:6f:28:33:aa:70:04:84:7a:e8:
                    98:b4:77:db:44:0f:2f:26:69:3c:3a:78:bc:c1:66:
                    95:06:1c:53:aa:46:ed:99:52:92:b1:d1:b0:6d:33:
                    bc:8f:da:b2:9d:f4:74:ae:ce:af:4c:bf:23:52:80:
                    62:ea:80:2c:c6:2d:65:f7:19:32:f3:51:91:b8:03:
                    74:e1:15:25:b0:4f:ad:a6:b7:ad:67:ea:f3:5a:dc:
                    02:5d:9c:44:a4:8c:c8:31:d6:e4:85:8c:e7:70:3c:
                    b9:1f:3b:e8:90:37:28:b0:73:af:0e:bc:77:58:a2:
                    2d:2a:f4:ac:e8:4a:21:4d:c9:2e:b8:ac:83:e9:30:
                    ae:ac:b3:00:4a:d9:1f:5d:10:b9:b9:63:e1:e5:ea:
                    ef:96:ee:82:c6:7f:f7:de:01:b4:5e:6f:de:42:50:
                    1d:25:e5:fd:27:64:ae:ad:71:f8:58:a3:97:f5:63:
                    dc:11:c8:db:17:42:a3:09:7e:ac:c9:08:bc:2f:92:
                    15:86:f9:7f:54:36:01:fc:97:49:9a:c8:09:f7:d5:
                    8e:68:e8:ee:62:c2:17:76:e5:58:1d:4b:cd:c9:1c:
                    bc:2c:6d:38:2a:7e:49:9f:5e:5e:43:85:fc:db:2f:
                    f2:01:19:87:c5:a4:d7:f5:5e:a2:ff:57:60:4e:e4:
                    eb:b3:58:43:b7:ae:c3:d9:31:75:87:55:b9:84:58:
                    e1:23:fd:ec:4b:ae:b5:e0:30:f7:20:09:e8:51:f4:
                    25:1b:dc:5e:9d:95:b7:f3:aa:59
                Exponent: 65537 (0x10001)
        X509v3 extensions:
            X509v3 Subject Key Identifier: 
                70:94:69:7E:EA:A4:FA:32:03:B9:76:D3:57:01:C4:B3:93:2B:AD:A7
            X509v3 Authority Key Identifier: 
                B6:FB:F2:89:13:4F:F9:04:AB:96:34:E0:0A:AA:19:52:B9:7A:B2:D8
            X509v3 Basic Constraints: 
                CA:FALSE
            X509v3 Key Usage: 
                Digital Signature, Key Encipherment
            X509v3 Subject Alternative Name: 
                DNS:kafka-3
    Signature Algorithm: sha256WithRSAEncryption
    Signature Value:
        36:d8:c0:34:8e:31:a1:21:f4:02:4a:78:15:4f:0f:99:de:cc:
        16:0f:5f:2c:12:50:7b:55:b2:b1:ee:1d:dc:29:e9:23:d2:19:
        3a:32:1e:bd:e3:bc:4b:bb:e6:2a:57:1b:e9:05:18:c8:a8:f9:
        48:7c:1b:1c:60:fd:75:ed:f1:dc:68:8a:b0:e6:2b:13:4b:0d:
        0f:a9:70:83:d9:70:d4:9a:1b:5d:cd:a9:21:d7:fb:06:c3:73:
        ce:b9:2b:26:37:a7:c1:53:2d:08:9b:9e:e4:1c:32:0e:94:42:
        bf:4f:2c:63:7a:01:ba:7f:6b:35:06:0a:f5:ee:49:86:e0:9f:
        46:ef:04:71:e7:db:33:2e:6b:ce:5e:12:8a:ba:3d:ba:ab:b7:
        61:43:1a:7a:dd:75:a2:63:d7:c7:3f:fd:97:00:3d:bf:66:7a:
        54:d9:ac:87:9e:af:fd:95:77:ed:39:5a:1e:50:7a:6e:96:b7:
        43:70:d6:df:e0:96:c4:a4:4b:0b:56:6a:ba:74:2a:06:e3:0e:
        12:ea:18:ec:bb:ac:c4:01:a5:46:40:a2:e7:2d:f1:5a:00:cc:
        b3:98:8d:17:5e:8b:78:9a:88:ae:25:ae:07:24:f1:e4:b4:5c:
        4e:19:1f:3d:9d:ff:5b:94:88:06:f1:21:ba:9d:d8:d5:c7:e8:
        d1:2b:68:f8:41:c5:11:f3:32:fd:40:d6:69:4c:07:3e:ac:f2:
        7a:b3:a8:91:cc:01:b8:69:98:af:a7:f7:32:99:a6:44:fa:d5:
        56:c1:1d:0c:b3:c6:75:33:b3:9d:b4:5c:00:fb:00:8c:7c:b6:
        0b:c7:af:04:5d:6a:f0:a9:6f:95:c3:bf:bd:d5:90:03:b5:97:
        8a:a7:74:fc:85:48:20:f0:47:a7:a3:9d:26:b5:dc:4c:9d:7f:
        9d:dd:fd:e1:f0:f9:e4:93:09:b6:ed:e3:8a:7e:21:f2:3e:9d:
        dd:2e:cf:49:19:3c:b9:8c:8b:94:60:51:b0:e9:19:56:d2:cf:
        ba:7d:cd:b2:1d:40:c3:87:f7:05:3c:3a:45:93:61:84:af:e1:
        eb:93:45:65:49:9a:46:08:54:7c:49:8e:3a:db:1f:d1:2f:e9:
        85:c9:95:bc:ec:1e:ee:c6:3f:10:fc:dd:19:26:6d:a5:2e:b9:
        cc:e6:c1:12:b4:79:af:06:5e:e5:d7:da:2d:68:72:40:b9:88:
        e7:ea:05:d8:6e:65:d2:cc:82:1e:9f:d7:a1:28:f6:46:41:3d:
        36:9b:0f:a1:d6:57:30:05:4a:50:28:83:d0:eb:2b:1a:70:ff:
        0e:04:cc:37:a6:ff:d6:1c:5c:64:ff:21:44:3e:42:a7:1e:a2:
        1d:ca:12:5a:50:13:66:25
-----BEGIN CERTIFICATE-----
MIIFWTCCA0GgAwIBAgIBAzANBgkqhkiG9w0BAQsFADCBgzELMAkGA1UEBhMCSFIx
EDAOBgNVBAgMB0Nyb2F0aWExDzANBgNVBAcMBlphZ3JlYjEMMAoGA1UECgwDRkVS
MQwwCgYDVQQLDANGRVIxEzARBgNVBAMMCmRlZmF1bHRfY24xIDAeBgkqhkiG9w0B
CQEWEWhydm9qZS5yb21AZmVyLmhyMB4XDTIzMTExOTE0MDcxNloXDTI2MDgxNTE0
MDcxNlowbDEQMA4GA1UEBhMHVW5rbm93bjEQMA4GA1UECBMHVW5rbm93bjEQMA4G
A1UEBxMHVW5rbm93bjEQMA4GA1UEChMHVW5rbm93bjEQMA4GA1UECxMHVW5rbm93
bjEQMA4GA1UEAxMHa2Fma2EtMzCCAaIwDQYJKoZIhvcNAQEBBQADggGPADCCAYoC
ggGBAL1UkpUET74k49CjZn2gfKBkgAnGra+MHmnOpQ4s0HwTR8Y1ibVm12eSCLHV
0JiKiA7xYAq0I5WIPXuqB34jikV3+LJMcwrvjqKL6fWZU1bVketxIj1inbpw9K32
254nbygzqnAEhHromLR320QPLyZpPDp4vMFmlQYcU6pG7ZlSkrHRsG0zvI/asp30
dK7Or0y/I1KAYuqALMYtZfcZMvNRkbgDdOEVJbBPraa3rWfq81rcAl2cRKSMyDHW
5IWM53A8uR876JA3KLBzrw68d1iiLSr0rOhKIU3JLrisg+kwrqyzAErZH10Qublj
4eXq75bugsZ/994BtF5v3kJQHSXl/Sdkrq1x+Fijl/Vj3BHI2xdCowl+rMkIvC+S
FYb5f1Q2AfyXSZrICffVjmjo7mLCF3blWB1LzckcvCxtOCp+SZ9eXkOF/Nsv8gEZ
h8Wk1/Veov9XYE7k67NYQ7euw9kxdYdVuYRY4SP97EuuteAw9yAJ6FH0JRvcXp2V
t/OqWQIDAQABo24wbDAdBgNVHQ4EFgQUcJRpfuqk+jIDuXbTVwHEs5MrracwHwYD
VR0jBBgwFoAUtvvyiRNP+QSrljTgCqoZUrl6stgwCQYDVR0TBAIwADALBgNVHQ8E
BAMCBaAwEgYDVR0RBAswCYIHa2Fma2EtMzANBgkqhkiG9w0BAQsFAAOCAgEANtjA
NI4xoSH0Akp4FU8Pmd7MFg9fLBJQe1Wyse4d3CnpI9IZOjIeveO8S7vmKlcb6QUY
yKj5SHwbHGD9de3x3GiKsOYrE0sND6lwg9lw1JobXc2pIdf7BsNzzrkrJjenwVMt
CJue5BwyDpRCv08sY3oBun9rNQYK9e5JhuCfRu8EcefbMy5rzl4Siro9uqu3YUMa
et11omPXxz/9lwA9v2Z6VNmsh56v/ZV37TlaHlB6bpa3Q3DW3+CWxKRLC1ZqunQq
BuMOEuoY7LusxAGlRkCi5y3xWgDMs5iNF16LeJqIriWuByTx5LRcThkfPZ3/W5SI
BvEhup3Y1cfo0Sto+EHFEfMy/UDWaUwHPqzyerOokcwBuGmYr6f3MpmmRPrVVsEd
DLPGdTOznbRcAPsAjHy2C8evBF1q8KlvlcO/vdWQA7WXiqd0/IVIIPBHp6OdJrXc
TJ1/nd394fD55JMJtu3jin4h8j6d3S7PSRk8uYyLlGBRsOkZVtLPun3Nsh1Aw4f3
BTw6RZNhhK/h65NFZUmaRghUfEmOOtsf0S/phcmVvOwe7sY/EPzdGSZtpS65zObB
ErR5rwZe5dfaLWhyQLmI5+oF2G5l0syCHp/XoSj2RkE9NpsPodZXMAVKUCiD0Osr
GnD/DgTMN6b/1hxcZP8hRD5Cpx6iHcoSWlATZiU=
-----END CERTIFICATE-----
