Certificate:
    Data:
        Version: 3 (0x2)
        Serial Number: 4 (0x4)
        Signature Algorithm: sha256WithRSAEncryption
        Issuer: C=HR, ST=Croatia, L=Zagreb, O=FER, OU=FER, CN=ca.oauthkafka.xyz/emailAddress=hrvoje.rom@fer.hr
        Validity
            Not Before: Jan  6 21:26:30 2024 GMT
            Not After : Oct  2 21:26:30 2026 GMT
        Subject: C=Unknown, ST=Unknown, L=Unknown, O=Unknown, OU=Unknown, CN=keycloak.oauthkafka.xyz
        Subject Public Key Info:
            Public Key Algorithm: rsaEncryption
                Public-Key: (2048 bit)
                Modulus:
                    00:b6:d2:fd:d9:26:4b:38:b4:28:75:ac:cb:33:cf:
                    39:d6:b9:52:fe:25:c1:94:9e:d3:77:fc:3f:8d:e4:
                    c2:b4:90:1a:2f:54:8f:65:8f:c4:e6:ee:ba:21:24:
                    0b:a4:74:ab:8d:f3:01:31:4a:17:3a:6a:dd:20:f4:
                    a9:d5:4f:6b:e1:bb:26:81:8c:f5:2f:e8:9e:74:63:
                    cd:72:5e:83:a5:7a:bf:2a:05:97:f2:e8:0d:cc:03:
                    c4:b4:3c:67:62:ce:7c:e8:a6:06:df:95:77:f1:30:
                    eb:5f:9a:b1:8a:8a:94:a3:bd:75:af:de:39:53:90:
                    85:1f:b5:d5:38:1c:d8:73:b5:32:43:4a:a9:7e:db:
                    c8:16:46:dc:16:3e:33:d3:9c:28:ae:2a:fc:41:0e:
                    09:22:89:03:25:e4:1f:9e:27:58:00:eb:5b:11:34:
                    69:b6:34:1f:6a:c2:0e:42:1d:69:fb:79:e1:b2:6e:
                    37:df:e0:33:5a:8d:84:f8:cb:6d:8b:25:f8:5a:b7:
                    ad:e6:eb:e2:83:4e:d8:f5:b5:43:20:4f:c7:4c:d6:
                    d1:84:dc:26:9b:b8:fc:9c:3e:94:7b:64:a5:8e:23:
                    3d:7a:c0:ce:da:6a:67:41:ae:c4:81:23:32:e2:6f:
                    e4:9a:1b:69:ed:be:4e:5f:4a:00:6c:cb:cc:a7:f8:
                    19:19
                Exponent: 65537 (0x10001)
        X509v3 extensions:
            X509v3 Subject Key Identifier: 
                C4:EB:9E:C3:17:8A:BE:DB:01:BA:78:AF:97:7F:5D:87:70:22:43:B4
            X509v3 Authority Key Identifier: 
                A9:8B:83:17:18:99:88:D6:E4:16:63:33:FE:0F:E2:87:1B:35:C6:7C
            X509v3 Basic Constraints: 
                CA:FALSE
            X509v3 Key Usage: 
                Digital Signature, Key Encipherment
            X509v3 Subject Alternative Name: 
                DNS:keycloak.oauthkafka.xyz
    Signature Algorithm: sha256WithRSAEncryption
    Signature Value:
        27:0e:9d:96:41:21:4c:ac:18:a5:e2:82:f2:dd:d0:b8:8a:dc:
        e1:b8:51:3c:38:ff:01:af:4d:3c:6b:c4:c3:30:37:14:58:33:
        3e:cc:8d:15:fe:03:3c:4e:0f:7c:1f:8f:1f:32:d1:88:ae:95:
        e5:b8:52:7e:1a:0f:91:b6:00:86:10:0e:69:40:c1:ad:bb:9d:
        35:7d:80:8c:bc:6d:ca:6c:7c:87:ba:3a:36:8d:a4:b4:5a:fc:
        13:85:23:7b:a1:32:1d:0a:3f:c4:74:24:19:1e:71:47:80:8d:
        dc:aa:32:0b:5f:79:e9:dc:51:98:94:86:73:db:25:6b:3e:26:
        ed:98:2f:6a:63:db:52:db:45:f7:ed:f2:fd:21:d8:4b:d5:c8:
        30:59:90:4b:31:3c:90:bd:93:02:87:54:1a:72:30:4b:21:91:
        fb:f8:e3:da:64:79:fe:e6:b1:22:00:d0:ac:88:74:c4:88:6d:
        1f:38:c6:e7:94:a2:86:62:c1:57:b3:b4:7f:98:d6:cd:d0:83:
        9d:b7:a2:f5:e8:b6:61:8e:61:9e:71:64:8b:06:78:62:d8:ab:
        c4:d0:d1:cc:f0:ab:b6:06:06:01:c6:72:5d:58:51:a4:cc:79:
        74:98:0f:c5:84:73:25:17:62:35:72:a4:be:ce:07:fd:93:94:
        12:4a:3a:35:e9:1f:05:1d:93:f4:3f:29:ad:5f:e0:f3:1e:bf:
        1b:53:80:10:42:e3:47:bd:17:81:8d:ea:e2:e7:5a:c3:bb:f6:
        90:ce:b9:46:6f:a5:e9:d3:b1:e3:2a:b7:b7:a1:c1:61:c9:d6:
        48:90:15:c3:a7:eb:d5:31:d8:df:49:eb:b5:15:a3:d3:89:4e:
        83:33:50:f5:2c:69:37:b7:1a:c7:9c:cd:d9:27:b2:7e:7e:7a:
        c0:9c:92:9e:4d:d0:57:00:e8:91:b0:92:29:e6:9d:2e:6b:05:
        ac:ff:ba:89:14:64:5d:f0:0d:29:26:79:fb:15:e0:54:ca:84:
        3b:f5:91:e4:98:03:94:ea:8e:e2:a9:57:0f:72:3c:a6:6d:d5:
        72:78:cb:32:e6:a6:f1:d7:35:92:38:dd:1c:7b:38:87:fd:cb:
        a7:89:bd:22:04:e5:31:70:1e:45:dc:dc:4a:9e:57:fd:a2:4d:
        af:ac:e8:85:a7:51:d7:bb:46:0a:4c:e3:59:3a:cc:46:89:9b:
        8d:d9:0e:28:10:9e:fd:b9:05:cf:70:26:b2:2b:8a:b9:56:62:
        07:a6:52:ef:ef:30:27:97:52:b8:8c:47:fa:21:0c:53:c0:80:
        e0:42:e2:7b:0b:4e:cf:bf:9d:83:57:29:75:9a:83:ff:d4:55:
        43:e5:28:8f:ed:74:7f:ec
-----BEGIN CERTIFICATE-----
MIIFADCCAuigAwIBAgIBBDANBgkqhkiG9w0BAQsFADCBijELMAkGA1UEBhMCSFIx
EDAOBgNVBAgMB0Nyb2F0aWExDzANBgNVBAcMBlphZ3JlYjEMMAoGA1UECgwDRkVS
MQwwCgYDVQQLDANGRVIxGjAYBgNVBAMMEWNhLm9hdXRoa2Fma2EueHl6MSAwHgYJ
KoZIhvcNAQkBFhFocnZvamUucm9tQGZlci5ocjAeFw0yNDAxMDYyMTI2MzBaFw0y
NjEwMDIyMTI2MzBaMHwxEDAOBgNVBAYTB1Vua25vd24xEDAOBgNVBAgTB1Vua25v
d24xEDAOBgNVBAcTB1Vua25vd24xEDAOBgNVBAoTB1Vua25vd24xEDAOBgNVBAsT
B1Vua25vd24xIDAeBgNVBAMTF2tleWNsb2FrLm9hdXRoa2Fma2EueHl6MIIBIjAN
BgkqhkiG9w0BAQEFAAOCAQ8AMIIBCgKCAQEAttL92SZLOLQodazLM8851rlS/iXB
lJ7Td/w/jeTCtJAaL1SPZY/E5u66ISQLpHSrjfMBMUoXOmrdIPSp1U9r4bsmgYz1
L+iedGPNcl6DpXq/KgWX8ugNzAPEtDxnYs586KYG35V38TDrX5qxioqUo711r945
U5CFH7XVOBzYc7UyQ0qpftvIFkbcFj4z05worir8QQ4JIokDJeQfnidYAOtbETRp
tjQfasIOQh1p+3nhsm433+AzWo2E+MttiyX4Wret5uvig07Y9bVDIE/HTNbRhNwm
m7j8nD6Ue2SljiM9esDO2mpnQa7EgSMy4m/kmhtp7b5OX0oAbMvMp/gZGQIDAQAB
o34wfDAdBgNVHQ4EFgQUxOuewxeKvtsBunivl39dh3AiQ7QwHwYDVR0jBBgwFoAU
qYuDFxiZiNbkFmMz/g/ihxs1xnwwCQYDVR0TBAIwADALBgNVHQ8EBAMCBaAwIgYD
VR0RBBswGYIXa2V5Y2xvYWsub2F1dGhrYWZrYS54eXowDQYJKoZIhvcNAQELBQAD
ggIBACcOnZZBIUysGKXigvLd0LiK3OG4UTw4/wGvTTxrxMMwNxRYMz7MjRX+AzxO
D3wfjx8y0YiuleW4Un4aD5G2AIYQDmlAwa27nTV9gIy8bcpsfIe6OjaNpLRa/BOF
I3uhMh0KP8R0JBkecUeAjdyqMgtfeencUZiUhnPbJWs+Ju2YL2pj21LbRfft8v0h
2EvVyDBZkEsxPJC9kwKHVBpyMEshkfv449pkef7msSIA0KyIdMSIbR84xueUooZi
wVeztH+Y1s3Qg523ovXotmGOYZ5xZIsGeGLYq8TQ0czwq7YGBgHGcl1YUaTMeXSY
D8WEcyUXYjVypL7OB/2TlBJKOjXpHwUdk/Q/Ka1f4PMevxtTgBBC40e9F4GN6uLn
WsO79pDOuUZvpenTseMqt7ehwWHJ1kiQFcOn69Ux2N9J67UVo9OJToMzUPUsaTe3
Gseczdknsn5+esCckp5N0FcA6JGwkinmnS5rBaz/uokUZF3wDSkmefsV4FTKhDv1
keSYA5TqjuKpVw9yPKZt1XJ4yzLmpvHXNZI43Rx7OIf9y6eJvSIE5TFwHkXc3Eqe
V/2iTa+s6IWnUde7RgpM41k6zEaJm43ZDigQnv25Bc9wJrIrirlWYgemUu/vMCeX
UriMR/ohDFPAgOBC4nsLTs+/nYNXKXWag//UVUPlKI/tdH/s
-----END CERTIFICATE-----
