Certificate:
    Data:
        Version: 3 (0x2)
        Serial Number: 4 (0x4)
        Signature Algorithm: sha256WithRSAEncryption
        Issuer: C=HR, ST=Croatia, L=Zagreb, O=FER, OU=FER, CN=ca.oauthkafka.xyz/emailAddress=hrvoje.rom@fer.hr
        Validity
            Not Before: Jan  6 19:33:33 2024 GMT
            Not After : Oct  2 19:33:33 2026 GMT
        Subject: C=Unknown, ST=Unknown, L=Unknown, O=Unknown, OU=Unknown, CN=keycloak.oauthkafka.xyz
        Subject Public Key Info:
            Public Key Algorithm: rsaEncryption
                Public-Key: (2048 bit)
                Modulus:
                    00:81:8a:73:b6:a8:65:f5:5b:22:aa:d3:17:3d:63:
                    6e:48:4d:78:c5:c5:c0:a7:ea:cc:ab:50:75:d9:b0:
                    b8:27:53:e8:33:8b:53:19:64:a4:82:23:70:8d:98:
                    d2:fc:5d:86:78:b3:35:16:b7:7e:58:5a:92:b7:96:
                    27:2a:70:33:f8:a4:ff:73:2d:4f:fb:b0:44:c0:b0:
                    75:1b:05:19:21:64:51:8e:d8:ec:b4:6d:12:af:9e:
                    a0:ad:d9:8f:3b:f7:bd:e6:39:19:b8:54:b9:1f:96:
                    32:0a:ac:c4:6f:9e:71:df:74:95:18:aa:b1:5a:1a:
                    eb:3a:65:dc:b4:91:cc:43:86:e2:22:6f:09:8a:c5:
                    f2:02:cb:f9:db:7e:3e:8b:e4:68:fb:a7:34:7f:ef:
                    6b:a7:6b:1c:cf:3d:fd:ae:c5:eb:c1:e1:39:5b:f2:
                    51:bd:da:7a:67:2f:88:53:b4:e2:97:e7:2f:55:d8:
                    95:2f:98:d1:9b:f4:dd:55:4e:31:02:00:da:b8:5b:
                    a7:50:31:36:34:0f:bf:91:5e:14:78:cf:af:63:c7:
                    3d:18:63:c8:34:65:e7:73:3d:8a:a4:2d:ee:7a:82:
                    07:18:98:06:d3:4c:96:e2:90:d0:fc:e0:58:fd:6d:
                    68:5e:86:9c:0a:e7:62:e8:a3:cd:57:22:67:72:de:
                    c0:27
                Exponent: 65537 (0x10001)
        X509v3 extensions:
            X509v3 Subject Key Identifier: 
                44:36:15:A3:BB:2F:43:C6:D2:37:BA:0B:18:E6:A7:01:43:5C:48:55
            X509v3 Authority Key Identifier: 
                7C:B1:8F:46:01:04:BD:54:EC:DB:21:8B:6C:D9:6E:69:B5:26:6D:30
            X509v3 Basic Constraints: 
                CA:FALSE
            X509v3 Key Usage: 
                Digital Signature, Key Encipherment
            X509v3 Subject Alternative Name: 
                DNS:keycloak.oauthkafka.xyz
    Signature Algorithm: sha256WithRSAEncryption
    Signature Value:
        1c:f4:ec:48:27:e3:55:8c:20:06:58:71:be:e7:12:67:b5:bc:
        1f:b5:60:2b:15:95:32:a0:f0:fe:da:d2:67:1e:52:88:92:67:
        55:d9:a2:b5:58:87:e9:da:40:e4:63:a2:a2:8c:c1:9e:b9:73:
        14:b4:48:94:37:42:ed:2e:77:7d:03:46:69:69:71:db:f3:db:
        1e:71:90:5f:fc:d7:8d:84:db:08:65:9f:61:4e:1e:33:f4:4e:
        66:f4:63:85:27:d3:ff:b7:43:4d:c2:ce:57:42:e3:89:0a:e5:
        1d:7c:aa:b0:0d:4b:49:89:87:9a:73:dd:5e:b1:d8:5a:5a:16:
        e9:d2:27:17:5a:33:8c:c7:3e:a6:93:7e:e7:7c:2a:71:79:14:
        8d:5b:10:44:df:85:de:8e:19:76:ce:28:0b:aa:8d:9b:30:ff:
        2d:42:54:87:2b:f5:63:47:b5:f8:b1:a6:37:f2:33:f8:d6:bb:
        49:e8:06:aa:9d:5d:28:d5:c9:18:02:d2:79:fd:ca:8d:fe:3c:
        b2:21:48:9a:1c:f2:62:e8:f2:3c:73:6c:25:55:7b:49:9d:79:
        ae:2c:fd:c4:a1:13:41:02:74:f3:22:1d:7c:bb:42:22:98:40:
        1b:d5:3d:f0:27:91:19:13:c4:db:db:52:a1:98:45:3b:eb:7a:
        58:b6:23:12:fd:72:05:1d:77:14:06:52:93:7e:1d:62:2a:c7:
        16:ae:3a:c5:2f:f7:62:8b:75:b3:e0:65:54:39:39:66:a2:94:
        67:95:7d:76:42:3f:24:9d:8c:88:90:b5:be:11:ac:c3:c4:38:
        f5:de:58:1c:be:ed:5a:f5:51:c4:80:15:05:b5:2c:74:37:78:
        a9:f6:f2:f7:be:d6:51:9d:8e:c1:7b:28:a7:ce:44:62:a1:a4:
        8e:48:6d:f9:99:97:34:77:1a:c5:d9:78:2d:56:32:1e:c3:7a:
        b1:e6:9d:be:95:59:20:1c:6f:37:91:3e:f5:4a:1d:f7:13:7c:
        38:62:b3:b2:98:9f:b5:c2:f6:2d:2e:92:e5:fe:c9:60:1c:38:
        89:7a:ee:d3:63:95:22:74:23:c3:e0:33:5c:fc:dc:1b:84:98:
        0d:8f:e2:76:16:33:1d:4e:b8:bf:42:9e:cb:16:d6:96:96:f0:
        f1:48:94:35:b6:e7:5e:67:9d:23:aa:2c:ff:fe:93:e7:15:42:
        bc:54:49:0e:fa:a6:52:6d:7c:59:ca:df:36:eb:1f:68:65:02:
        61:21:cb:ff:19:fb:5f:9a:cc:33:d8:db:1a:85:1a:df:dd:20:
        1d:d3:5a:fb:43:a2:dc:dc:1a:4a:ba:c1:f7:a6:1d:c5:b2:16:
        a5:39:12:9e:ce:85:c0:83
-----BEGIN CERTIFICATE-----
MIIFADCCAuigAwIBAgIBBDANBgkqhkiG9w0BAQsFADCBijELMAkGA1UEBhMCSFIx
EDAOBgNVBAgMB0Nyb2F0aWExDzANBgNVBAcMBlphZ3JlYjEMMAoGA1UECgwDRkVS
MQwwCgYDVQQLDANGRVIxGjAYBgNVBAMMEWNhLm9hdXRoa2Fma2EueHl6MSAwHgYJ
KoZIhvcNAQkBFhFocnZvamUucm9tQGZlci5ocjAeFw0yNDAxMDYxOTMzMzNaFw0y
NjEwMDIxOTMzMzNaMHwxEDAOBgNVBAYTB1Vua25vd24xEDAOBgNVBAgTB1Vua25v
d24xEDAOBgNVBAcTB1Vua25vd24xEDAOBgNVBAoTB1Vua25vd24xEDAOBgNVBAsT
B1Vua25vd24xIDAeBgNVBAMTF2tleWNsb2FrLm9hdXRoa2Fma2EueHl6MIIBIjAN
BgkqhkiG9w0BAQEFAAOCAQ8AMIIBCgKCAQEAgYpztqhl9VsiqtMXPWNuSE14xcXA
p+rMq1B12bC4J1PoM4tTGWSkgiNwjZjS/F2GeLM1Frd+WFqSt5YnKnAz+KT/cy1P
+7BEwLB1GwUZIWRRjtjstG0Sr56grdmPO/e95jkZuFS5H5YyCqzEb55x33SVGKqx
WhrrOmXctJHMQ4biIm8JisXyAsv5234+i+Ro+6c0f+9rp2sczz39rsXrweE5W/JR
vdp6Zy+IU7Til+cvVdiVL5jRm/TdVU4xAgDauFunUDE2NA+/kV4UeM+vY8c9GGPI
NGXncz2KpC3ueoIHGJgG00yW4pDQ/OBY/W1oXoacCudi6KPNVyJnct7AJwIDAQAB
o34wfDAdBgNVHQ4EFgQURDYVo7svQ8bSN7oLGOanAUNcSFUwHwYDVR0jBBgwFoAU
fLGPRgEEvVTs2yGLbNluabUmbTAwCQYDVR0TBAIwADALBgNVHQ8EBAMCBaAwIgYD
VR0RBBswGYIXa2V5Y2xvYWsub2F1dGhrYWZrYS54eXowDQYJKoZIhvcNAQELBQAD
ggIBABz07Egn41WMIAZYcb7nEme1vB+1YCsVlTKg8P7a0mceUoiSZ1XZorVYh+na
QORjoqKMwZ65cxS0SJQ3Qu0ud30DRmlpcdvz2x5xkF/8142E2whln2FOHjP0Tmb0
Y4Un0/+3Q03CzldC44kK5R18qrANS0mJh5pz3V6x2FpaFunSJxdaM4zHPqaTfud8
KnF5FI1bEETfhd6OGXbOKAuqjZsw/y1CVIcr9WNHtfixpjfyM/jWu0noBqqdXSjV
yRgC0nn9yo3+PLIhSJoc8mLo8jxzbCVVe0mdea4s/cShE0ECdPMiHXy7QiKYQBvV
PfAnkRkTxNvbUqGYRTvreli2IxL9cgUddxQGUpN+HWIqxxauOsUv92KLdbPgZVQ5
OWailGeVfXZCPySdjIiQtb4RrMPEOPXeWBy+7Vr1UcSAFQW1LHQ3eKn28ve+1lGd
jsF7KKfORGKhpI5IbfmZlzR3GsXZeC1WMh7DerHmnb6VWSAcbzeRPvVKHfcTfDhi
s7KYn7XC9i0ukuX+yWAcOIl67tNjlSJ0I8PgM1z83BuEmA2P4nYWMx1OuL9CnssW
1paW8PFIlDW2515nnSOqLP/+k+cVQrxUSQ76plJtfFnK3zbrH2hlAmEhy/8Z+1+a
zDPY2xqFGt/dIB3TWvtDotzcGkq6wfemHcWyFqU5Ep7OhcCD
-----END CERTIFICATE-----
